; Function Attrs: nounwind uwtable
define hidden i32 @Curl_init_do(ptr noundef %0, ptr noundef %1) local_unnamed_addr #0 {
  %.not = icmp eq ptr %1, null
  br i1 %.not, label %._crit_edge, label %3

._crit_edge:                                      ; preds = %2
  %.phi.trans.insert = getelementptr inbounds nuw i8, ptr %0, i64 5036
  %.pre = load i32, ptr %.phi.trans.insert, align 4
  br label %17

3:                                                ; preds = %2
  %4 = getelementptr inbounds nuw i8, ptr %1, i64 952
  %5 = load i64, ptr %4, align 8
  %6 = and i64 %5, -4097
  store i64 %6, ptr %4, align 8
  %7 = getelementptr inbounds nuw i8, ptr %0, i64 5036
  %8 = load i32, ptr %7, align 4
  %9 = and i32 %8, 256
  %.not14 = icmp eq i32 %9, 0
  br i1 %.not14, label %17, label %10

10:                                               ; preds = %3
  %11 = getelementptr inbounds nuw i8, ptr %1, i64 960
  %12 = load ptr, ptr %11, align 8, !tbaa !200
  %13 = getelementptr inbounds nuw i8, ptr %12, i64 156
  %14 = load i32, ptr %13, align 4, !tbaa !220
  %15 = and i32 %14, 4096
  %.not15 = icmp eq i32 %15, 0
  %16 = and i32 %8, -257
  %spec.select = select i1 %.not15, i32 %16, i32 %8
  br label %17

17:                                               ; preds = %10, %._crit_edge, %3
  %18 = phi i32 [ %.pre, %._crit_edge ], [ %8, %3 ], [ %spec.select, %10 ]
  %19 = getelementptr inbounds nuw i8, ptr %0, i64 5036
  %20 = and i32 %18, -4097
  store i32 %20, ptr %19, align 4
  %21 = getelementptr inbounds nuw i8, ptr %0, i64 240
  %22 = getelementptr inbounds nuw i8, ptr %0, i64 457
  %23 = load i32, ptr %22, align 1
  %24 = and i32 %23, 131072
  %.not16 = icmp eq i32 %24, 0
  br i1 %.not16, label %27, label %25

25:                                               ; preds = %17
  %26 = getelementptr inbounds nuw i8, ptr %0, i64 5034
  store i8 5, ptr %26, align 2, !tbaa !263
  br label %27

27:                                               ; preds = %25, %17
  %28 = tail call i32 @Curl_req_start(ptr noundef nonnull %21, ptr noundef nonnull %0) #11
  %.not17 = icmp eq i32 %28, 0
  br i1 %.not17, label %29, label %31

29:                                               ; preds = %27
  tail call void @Curl_speedinit(ptr noundef nonnull %0) #11
  tail call void @Curl_pgrsSetUploadCounter(ptr noundef nonnull %0, i64 noundef 0) #11
  %30 = tail call i32 @Curl_pgrsSetDownloadCounter(ptr noundef nonnull %0, i64 noundef 0) #11
  br label %31

31:                                               ; preds = %29, %27
  ret i32 %28
}